; Function Attrs: mustprogress uwtable
define void @_ZNK7rocksdb9FileState22DropRandomUnsyncedDataEPNS_3EnvEPNS_6RandomE(ptr dead_on_unwind noalias writable sret(%"class.rocksdb::Status") align 8 %0, ptr noundef nonnull align 8 dereferenceable(56) %1, ptr noundef %2, ptr noundef captures(none) %3) local_unnamed_addr #0 align 2 {
  %5 = getelementptr inbounds nuw i8, ptr %1, i64 40
  %6 = load i64, ptr %5, align 8, !tbaa !81
  %7 = icmp eq i64 %6, -1
  %spec.select = select i1 %7, i64 0, i64 %6
  %8 = getelementptr inbounds nuw i8, ptr %1, i64 32
  %9 = load i64, ptr %8, align 8, !tbaa !83
  %10 = sub nsw i64 %9, %spec.select
  %11 = trunc i64 %10 to i32
  %12 = load i32, ptr %3, align 4, !tbaa !84
  %13 = zext i32 %12 to i64
  %14 = mul nuw nsw i64 %13, 16807
  %15 = lshr i64 %14, 31
  %16 = and i64 %14, 2147483647
  %17 = add nuw nsw i64 %15, %16
  %18 = trunc nuw i64 %17 to i32
  %19 = icmp slt i32 %18, 0
  %20 = add i32 %18, -2147483647
  %spec.select.i.i = select i1 %19, i32 %20, i32 %18
  store i32 %spec.select.i.i, ptr %3, align 4, !tbaa !84
  %21 = urem i32 %spec.select.i.i, %11
  %22 = zext i32 %21 to i64
  %23 = add i64 %spec.select, %22
  tail call void @_ZN7rocksdb8TruncateEPNS_3EnvERKNSt7__cxx1112basic_stringIcSt11char_traitsIcESaIcEEEm(ptr dead_on_unwind writable sret(%"class.rocksdb::Status") align 8 %0, ptr noundef %2, ptr noundef nonnull align 8 dereferenceable(32) %1, i64 noundef %23)
  ret void
}